target datalayout = "e-m:e-p270:32:32-p271:32:32-p272:64:64-i64:64-i128:128-f80:128-n8:16:32:64-S128"
target triple = "x86_64-pc-linux-gnu"

%struct.EState = type { i32, i32, ptr, ptr, ptr, i32, ptr, ptr, ptr, ptr, ptr, ptr, ptr, ptr, ptr, ptr, i32, ptr, ptr, ptr, ptr, ptr, ptr, ptr, ptr, ptr, ptr, i64, i64, i32, i32, i8, ptr, ptr, ptr, ptr, ptr, i8, i32, i32, ptr, i32, ptr, ptr, ptr, ptr }
%struct.ForEachState = type { ptr, i32 }
%struct.List = type { i32, i32, i32, ptr, [0 x %union.ListCell] }
%union.ListCell = type { ptr }
%struct.ResultRelInfo = type { i32, i32, ptr, i32, ptr, ptr, i16, ptr, i8, ptr, ptr, ptr, i8, i8, ptr, ptr, ptr, ptr, ptr, ptr, ptr, ptr, ptr, ptr, i8, i32, i32, i32, ptr, ptr, ptr, ptr, ptr, ptr, ptr, i32, i32, ptr, ptr, ptr, ptr, [3 x ptr], ptr, ptr, ptr, i8, ptr, i8, ptr, ptr, ptr, ptr }
%struct.RelationData = type { %struct.RelFileLocator, ptr, i32, i32, i8, i8, i8, i8, i8, i32, i32, i32, i32, ptr, ptr, i32, %struct.LockInfoData, ptr, ptr, ptr, ptr, ptr, i8, ptr, ptr, ptr, ptr, ptr, ptr, i32, ptr, i8, ptr, ptr, i32, i8, i32, ptr, i8, ptr, ptr, ptr, ptr, ptr, ptr, ptr, i32, ptr, ptr, ptr, ptr, ptr, ptr, ptr, ptr, ptr, ptr, ptr, ptr, ptr, ptr, ptr, ptr, ptr, ptr, ptr, i32, i8, ptr }
%struct.RelFileLocator = type { i32, i32, i32 }
%struct.LockInfoData = type { %struct.LockRelId }
%struct.LockRelId = type { i32, i32 }
%struct.FormData_pg_class = type { i32, %struct.nameData, i32, i32, i32, i32, i32, i32, i32, i32, float, i32, i32, i8, i8, i8, i8, i16, i16, i8, i8, i8, i8, i8, i8, i8, i8, i32, i32, i32 }
%struct.nameData = type { [64 x i8] }
%struct.Node = type { i32 }

@.str.1 = private unnamed_addr constant [11 x i8] c"execMain.c\00", align 1
@.str.13 = private unnamed_addr constant [57 x i8] c"cannot find ancestors of a non-partition result relation\00", align 1
@__func__.ExecGetAncestorResultRels = private unnamed_addr constant [26 x i8] c"ExecGetAncestorResultRels\00", align 1

; Function Attrs: inlinehint nounwind uwtable
define internal ptr @newNode(i64 noundef %0, i32 noundef %1) #3 {
  %3 = alloca i64, align 8
  %4 = alloca i32, align 4
  %5 = alloca ptr, align 8
  store i64 %0, ptr %3, align 8
  store i32 %1, ptr %4, align 4
  call void @llvm.lifetime.start.p0(i64 8, ptr %5) #9
  %6 = load i64, ptr %3, align 8
  %7 = call ptr @palloc0(i64 noundef %6)
  store ptr %7, ptr %5, align 8
  %8 = load i32, ptr %4, align 4
  %9 = load ptr, ptr %5, align 8
  %10 = getelementptr inbounds nuw %struct.Node, ptr %9, i32 0, i32 0
  store i32 %8, ptr %10, align 4
  %11 = load ptr, ptr %5, align 8
  call void @llvm.lifetime.end.p0(i64 8, ptr %5) #9
  ret ptr %11
}

; Function Attrs: nounwind uwtable
define dso_local ptr @ExecGetAncestorResultRels(ptr noundef %0, ptr noundef %1) #0 {
  %3 = alloca ptr, align 8
  %4 = alloca ptr, align 8
  %5 = alloca ptr, align 8
  %6 = alloca ptr, align 8
  %7 = alloca i32, align 4
  %8 = alloca ptr, align 8
  %9 = alloca ptr, align 8
  %10 = alloca ptr, align 8
  %11 = alloca %struct.ForEachState, align 8
  %12 = alloca i32, align 4
  %13 = alloca i32, align 4
  %14 = alloca ptr, align 8
  %15 = alloca ptr, align 8
  store ptr %0, ptr %3, align 8
  store ptr %1, ptr %4, align 8
  call void @llvm.lifetime.start.p0(i64 8, ptr %5) #9
  %16 = load ptr, ptr %4, align 8
  %17 = getelementptr inbounds nuw %struct.ResultRelInfo, ptr %16, i32 0, i32 48
  %18 = load ptr, ptr %17, align 8
  store ptr %18, ptr %5, align 8
  call void @llvm.lifetime.start.p0(i64 8, ptr %6) #9
  %19 = load ptr, ptr %4, align 8
  %20 = getelementptr inbounds nuw %struct.ResultRelInfo, ptr %19, i32 0, i32 2
  %21 = load ptr, ptr %20, align 8
  store ptr %21, ptr %6, align 8
  call void @llvm.lifetime.start.p0(i64 4, ptr %7) #9
  %22 = load ptr, ptr %6, align 8
  %23 = getelementptr inbounds nuw %struct.RelationData, ptr %22, i32 0, i32 13
  %24 = load ptr, ptr %23, align 8
  %25 = getelementptr inbounds nuw %struct.FormData_pg_class, ptr %24, i32 0, i32 26
  %26 = load i8, ptr %25, align 1, !range !4, !noundef !5
  %27 = trunc i8 %26 to i1
  br i1 %27, label %39, label %28

28:                                               ; preds = %2
  br label %29

29:                                               ; preds = %28
  br i1 true, label %30, label %32

30:                                               ; preds = %29
  %31 = call zeroext i1 @errstart_cold(i32 noundef 21, ptr noundef null) #10
  br i1 %31, label %34, label %36

32:                                               ; preds = %29
  %33 = call zeroext i1 @errstart(i32 noundef 21, ptr noundef null)
  br i1 %33, label %34, label %36

34:                                               ; preds = %32, %30
  %35 = call i32 (ptr, ...) @errmsg_internal(ptr noundef @.str.13)
  call void @errfinish(ptr noundef @.str.1, i32 noundef 1405, ptr noundef @__func__.ExecGetAncestorResultRels)
  br label %36

36:                                               ; preds = %34, %32, %30
  unreachable

37:                                               ; No predecessors!
  br label %38

38:                                               ; preds = %37
  br label %39

39:                                               ; preds = %38, %2
  %40 = load ptr, ptr %5, align 8
  %41 = getelementptr inbounds nuw %struct.ResultRelInfo, ptr %40, i32 0, i32 2
  %42 = load ptr, ptr %41, align 8
  %43 = getelementptr inbounds nuw %struct.RelationData, ptr %42, i32 0, i32 15
  %44 = load i32, ptr %43, align 8
  store i32 %44, ptr %7, align 4
  %45 = load ptr, ptr %4, align 8
  %46 = getelementptr inbounds nuw %struct.ResultRelInfo, ptr %45, i32 0, i32 51
  %47 = load ptr, ptr %46, align 8
  %48 = icmp eq ptr %47, null
  br i1 %48, label %49, label %118

49:                                               ; preds = %39
  call void @llvm.lifetime.start.p0(i64 8, ptr %8) #9
  call void @llvm.lifetime.start.p0(i64 8, ptr %9) #9
  %50 = load ptr, ptr %6, align 8
  %51 = getelementptr inbounds nuw %struct.RelationData, ptr %50, i32 0, i32 15
  %52 = load i32, ptr %51, align 8
  %53 = call ptr @get_partition_ancestors(i32 noundef %52)
  store ptr %53, ptr %9, align 8
  call void @llvm.lifetime.start.p0(i64 8, ptr %10) #9
  store ptr null, ptr %10, align 8
  call void @llvm.lifetime.start.p0(i64 16, ptr %11) #9
  %54 = getelementptr inbounds nuw %struct.ForEachState, ptr %11, i32 0, i32 0
  %55 = load ptr, ptr %9, align 8
  store ptr %55, ptr %54, align 8
  %56 = getelementptr inbounds nuw %struct.ForEachState, ptr %11, i32 0, i32 1
  store i32 0, ptr %56, align 8
  %57 = getelementptr i8, ptr %11, i64 12
  call void @llvm.memset.p0.i64(ptr align 4 %57, i8 0, i64 4, i1 false)
  br label %58

58:                                               ; preds = %106, %49
  %59 = getelementptr inbounds nuw %struct.ForEachState, ptr %11, i32 0, i32 0
  %60 = load ptr, ptr %59, align 8
  %61 = icmp ne ptr %60, null
  br i1 %61, label %62, label %79

62:                                               ; preds = %58
  %63 = getelementptr inbounds nuw %struct.ForEachState, ptr %11, i32 0, i32 1
  %64 = load i32, ptr %63, align 8
  %65 = getelementptr inbounds nuw %struct.ForEachState, ptr %11, i32 0, i32 0
  %66 = load ptr, ptr %65, align 8
  %67 = getelementptr inbounds nuw %struct.List, ptr %66, i32 0, i32 1
  %68 = load i32, ptr %67, align 4
  %69 = icmp slt i32 %64, %68
  br i1 %69, label %70, label %79

70:                                               ; preds = %62
  %71 = getelementptr inbounds nuw %struct.ForEachState, ptr %11, i32 0, i32 0
  %72 = load ptr, ptr %71, align 8
  %73 = getelementptr inbounds nuw %struct.List, ptr %72, i32 0, i32 3
  %74 = load ptr, ptr %73, align 8
  %75 = getelementptr inbounds nuw %struct.ForEachState, ptr %11, i32 0, i32 1
  %76 = load i32, ptr %75, align 8
  %77 = sext i32 %76 to i64
  %78 = getelementptr inbounds %union.ListCell, ptr %74, i64 %77
  store ptr %78, ptr %8, align 8
  br label %80

79:                                               ; preds = %62, %58
  store ptr null, ptr %8, align 8
  br label %80

80:                                               ; preds = %79, %70
  %81 = phi i32 [ 1, %70 ], [ 0, %79 ]
  %82 = icmp ne i32 %81, 0
  br i1 %82, label %84, label %83

83:                                               ; preds = %80
  store i32 4, ptr %12, align 4
  br label %110

84:                                               ; preds = %80
  call void @llvm.lifetime.start.p0(i64 4, ptr %13) #9
  %85 = load ptr, ptr %8, align 8
  %86 = load i32, ptr %85, align 8
  store i32 %86, ptr %13, align 4
  call void @llvm.lifetime.start.p0(i64 8, ptr %14) #9
  call void @llvm.lifetime.start.p0(i64 8, ptr %15) #9
  %87 = load i32, ptr %13, align 4
  %88 = load i32, ptr %7, align 4
  %89 = icmp eq i32 %87, %88
  br i1 %89, label %90, label %91

90:                                               ; preds = %84
  store i32 4, ptr %12, align 4
  br label %103

91:                                               ; preds = %84
  %92 = load i32, ptr %13, align 4
  %93 = call ptr @table_open(i32 noundef %92, i32 noundef 0)
  store ptr %93, ptr %14, align 8
  %94 = call ptr @newNode(i64 noundef 392, i32 noundef 387)
  store ptr %94, ptr %15, align 8
  %95 = load ptr, ptr %15, align 8
  %96 = load ptr, ptr %14, align 8
  %97 = load ptr, ptr %3, align 8
  %98 = getelementptr inbounds nuw %struct.EState, ptr %97, i32 0, i32 30
  %99 = load i32, ptr %98, align 4
  call void @InitResultRelInfo(ptr noundef %95, ptr noundef %96, i32 noundef 0, ptr noundef null, i32 noundef %99)
  %100 = load ptr, ptr %10, align 8
  %101 = load ptr, ptr %15, align 8
  %102 = call ptr @lappend(ptr noundef %100, ptr noundef %101)
  store ptr %102, ptr %10, align 8
  store i32 0, ptr %12, align 4
  br label %103

103:                                              ; preds = %91, %90
  call void @llvm.lifetime.end.p0(i64 8, ptr %15) #9
  call void @llvm.lifetime.end.p0(i64 8, ptr %14) #9
  call void @llvm.lifetime.end.p0(i64 4, ptr %13) #9
  %104 = load i32, ptr %12, align 4
  switch i32 %104, label %110 [
    i32 0, label %105
  ]

105:                                              ; preds = %103
  br label %106

106:                                              ; preds = %105
  %107 = getelementptr inbounds nuw %struct.ForEachState, ptr %11, i32 0, i32 1
  %108 = load i32, ptr %107, align 8
  %109 = add i32 %108, 1
  store i32 %109, ptr %107, align 8
  br label %58, !llvm.loop !19

110:                                              ; preds = %103, %83
  call void @llvm.lifetime.end.p0(i64 16, ptr %11) #9
  br label %111

111:                                              ; preds = %110
  %112 = load ptr, ptr %10, align 8
  %113 = load ptr, ptr %5, align 8
  %114 = call ptr @lappend(ptr noundef %112, ptr noundef %113)
  store ptr %114, ptr %10, align 8
  %115 = load ptr, ptr %10, align 8
  %116 = load ptr, ptr %4, align 8
  %117 = getelementptr inbounds nuw %struct.ResultRelInfo, ptr %116, i32 0, i32 51
  store ptr %115, ptr %117, align 8
  call void @llvm.lifetime.end.p0(i64 8, ptr %10) #9
  call void @llvm.lifetime.end.p0(i64 8, ptr %9) #9
  call void @llvm.lifetime.end.p0(i64 8, ptr %8) #9
  br label %118

118:                                              ; preds = %111, %39
  %119 = load ptr, ptr %4, align 8
  %120 = getelementptr inbounds nuw %struct.ResultRelInfo, ptr %119, i32 0, i32 51
  %121 = load ptr, ptr %120, align 8
  store i32 1, ptr %12, align 4
  call void @llvm.lifetime.end.p0(i64 4, ptr %7) #9
  call void @llvm.lifetime.end.p0(i64 8, ptr %6) #9
  call void @llvm.lifetime.end.p0(i64 8, ptr %5) #9
  ret ptr %121
}