; Function Attrs: nounwind uwtable
define dso_local ptr @ExecGetAncestorResultRels(ptr noundef readonly captures(none) %0, ptr noundef captures(none) %1) local_unnamed_addr #0 {
  %3 = getelementptr inbounds nuw i8, ptr %1, i64 360
  %4 = load ptr, ptr %3, align 8
  %5 = getelementptr inbounds nuw i8, ptr %1, i64 8
  %6 = load ptr, ptr %5, align 8
  %7 = getelementptr inbounds nuw i8, ptr %6, i64 56
  %8 = load ptr, ptr %7, align 8
  %9 = getelementptr inbounds nuw i8, ptr %8, i64 127
  %10 = load i8, ptr %9, align 1, !range !4, !noundef !5
  %11 = trunc nuw i8 %10 to i1
  br i1 %11, label %15, label %12

12:                                               ; preds = %2
  %13 = tail call zeroext i1 @errstart_cold(i32 noundef 21, ptr noundef null) #10
  tail call void @llvm.assume(i1 %13)
  %14 = tail call i32 (ptr, ...) @errmsg_internal(ptr noundef nonnull @.str.13) #9
  tail call void @errfinish(ptr noundef nonnull @.str.1, i32 noundef 1405, ptr noundef nonnull @__func__.ExecGetAncestorResultRels) #9
  unreachable

15:                                               ; preds = %2
  %16 = getelementptr inbounds nuw i8, ptr %4, i64 8
  %17 = load ptr, ptr %16, align 8
  %18 = getelementptr inbounds nuw i8, ptr %17, i64 72
  %19 = load i32, ptr %18, align 8
  %20 = getelementptr inbounds nuw i8, ptr %1, i64 384
  %21 = load ptr, ptr %20, align 8
  %22 = icmp eq ptr %21, null
  br i1 %22, label %23, label %44

23:                                               ; preds = %15
  %24 = getelementptr inbounds nuw i8, ptr %6, i64 72
  %25 = load i32, ptr %24, align 8
  %26 = tail call ptr @get_partition_ancestors(i32 noundef %25) #9
  %27 = getelementptr inbounds nuw i8, ptr %26, i64 4
  %28 = getelementptr inbounds nuw i8, ptr %26, i64 16
  %.not = icmp eq ptr %26, null
  br i1 %.not, label %.thread, label %.lr.ph

.lr.ph:                                           ; preds = %23
  %29 = getelementptr inbounds nuw i8, ptr %0, i64 228
  %30 = load i32, ptr %27, align 4
  %31 = icmp sgt i32 %30, 0
  br i1 %31, label %.lr.ph45, label %.thread

.lr.ph45:                                         ; preds = %.lr.ph, %35
  %indvars.iv = phi i64 [ %indvars.iv.next, %35 ], [ 0, %.lr.ph ]
  %.0253643 = phi ptr [ %39, %35 ], [ null, %.lr.ph ]
  %32 = load ptr, ptr %28, align 8
  %33 = getelementptr inbounds nuw %union.ListCell, ptr %32, i64 %indvars.iv
  %34 = load i32, ptr %33, align 8
  %.not30 = icmp eq i32 %34, %19
  br i1 %.not30, label %.thread, label %35

35:                                               ; preds = %.lr.ph45
  %36 = tail call ptr @table_open(i32 noundef %34, i32 noundef 0) #9
  %37 = tail call noundef ptr @palloc0(i64 noundef 392) #9
  store i32 387, ptr %37, align 4
  %38 = load i32, ptr %29, align 4
  tail call void @InitResultRelInfo(ptr noundef nonnull %37, ptr noundef %36, i32 noundef 0, ptr noundef null, i32 noundef %38)
  %39 = tail call ptr @lappend(ptr noundef %.0253643, ptr noundef nonnull %37) #9
  %indvars.iv.next = add nuw nsw i64 %indvars.iv, 1
  %40 = load i32, ptr %27, align 4
  %41 = sext i32 %40 to i64
  %42 = icmp slt i64 %indvars.iv.next, %41
  br i1 %42, label %.lr.ph45, label %.thread

.thread:                                          ; preds = %35, %.lr.ph45, %.lr.ph, %23
  %.025.lcssa = phi ptr [ null, %23 ], [ null, %.lr.ph ], [ %.0253643, %.lr.ph45 ], [ %39, %35 ]
  %43 = tail call ptr @lappend(ptr noundef %.025.lcssa, ptr noundef %4) #9
  store ptr %43, ptr %20, align 8
  br label %44

44:                                               ; preds = %.thread, %15
  %45 = phi ptr [ %43, %.thread ], [ %21, %15 ]
  ret ptr %45
}